; ModuleID = '19/396.c'
source_filename = "19/396.c"
target datalayout = "e-m:e-p270:32:32-p271:32:32-p272:64:64-i64:64-f80:128-n8:16:32:64-S128"
target triple = "x86_64-pc-linux-gnu"

@.str = private unnamed_addr constant [3 x i8] c"%s\00", align 1
@.str.1 = private unnamed_addr constant [3 x i8] c"%c\00", align 1
@.str.2 = private unnamed_addr constant [2 x i8] c" \00", align 1

; Function Attrs: noinline nounwind uwtable
define dso_local void @main() #0 {
  %1 = alloca [100 x [100 x i8]], align 16
  %2 = alloca [100 x i8], align 16
  %3 = alloca [100 x i8], align 16
  %4 = alloca i32, align 4
  %5 = alloca i32, align 4
  %6 = alloca i32, align 4
  %7 = alloca [100 x i8]*, align 8
  %8 = bitcast [100 x [100 x i8]]* %1 to i8*
  call void @llvm.memset.p0i8.i64(i8* align 16 %8, i8 0, i64 10000, i1 false)
  store i32 0, i32* %4, align 4
  br label %9

9:                                                ; preds = %17, %0
  %10 = load i32, i32* %4, align 4
  %11 = sext i32 %10 to i64
  %12 = getelementptr inbounds [100 x [100 x i8]], [100 x [100 x i8]]* %1, i64 0, i64 %11
  %13 = getelementptr inbounds [100 x i8], [100 x i8]* %12, i64 0, i64 0
  %14 = call i32 (i8*, ...) @__isoc99_scanf(i8* getelementptr inbounds ([3 x i8], [3 x i8]* @.str, i64 0, i64 0), i8* %13)
  %15 = load i32, i32* %4, align 4
  %16 = add nsw i32 %15, 1
  store i32 %16, i32* %4, align 4
  br label %17

17:                                               ; preds = %9
  %18 = call i32 @getchar()
  %19 = icmp ne i32 %18, 10
  br i1 %19, label %9, label %20

20:                                               ; preds = %17
  %21 = load i32, i32* %4, align 4
  store i32 %21, i32* %6, align 4
  %22 = getelementptr inbounds [100 x i8], [100 x i8]* %2, i64 0, i64 0
  %23 = call i32 (i8*, ...) bitcast (i32 (...)* @gets to i32 (i8*, ...)*)(i8* %22)
  %24 = getelementptr inbounds [100 x i8], [100 x i8]* %3, i64 0, i64 0
  %25 = call i32 (i8*, ...) bitcast (i32 (...)* @gets to i32 (i8*, ...)*)(i8* %24)
  %26 = getelementptr inbounds [100 x [100 x i8]], [100 x [100 x i8]]* %1, i64 0, i64 0
  store [100 x i8]* %26, [100 x i8]** %7, align 8
  store i32 0, i32* %4, align 4
  br label %27

27:                                               ; preds = %74, %20
  %28 = load i32, i32* %4, align 4
  %29 = load i32, i32* %6, align 4
  %30 = icmp slt i32 %28, %29
  br i1 %30, label %31, label %77

31:                                               ; preds = %27
  %32 = load [100 x i8]*, [100 x i8]** %7, align 8
  %33 = load i32, i32* %4, align 4
  %34 = sext i32 %33 to i64
  %35 = getelementptr inbounds [100 x i8], [100 x i8]* %32, i64 %34
  %36 = getelementptr inbounds [100 x i8], [100 x i8]* %35, i64 0, i64 0
  %37 = getelementptr inbounds [100 x i8], [100 x i8]* %2, i64 0, i64 0
  %38 = call i32 @strcmp(i8* %36, i8* %37) #5
  %39 = icmp eq i32 %38, 0
  br i1 %39, label %40, label %73

40:                                               ; preds = %31
  store i32 0, i32* %5, align 4
  br label %41

41:                                               ; preds = %62, %40
  %42 = load [100 x i8]*, [100 x i8]** %7, align 8
  %43 = load i32, i32* %4, align 4
  %44 = sext i32 %43 to i64
  %45 = getelementptr inbounds [100 x i8], [100 x i8]* %42, i64 %44
  %46 = getelementptr inbounds [100 x i8], [100 x i8]* %45, i64 0, i64 0
  %47 = load i32, i32* %5, align 4
  %48 = sext i32 %47 to i64
  %49 = getelementptr inbounds i8, i8* %46, i64 %48
  %50 = load i8, i8* %49, align 1
  %51 = sext i8 %50 to i32
  %52 = icmp ne i32 %51, 0
  br i1 %52, label %53, label %65

53:                                               ; preds = %41
  %54 = load [100 x i8]*, [100 x i8]** %7, align 8
  %55 = load i32, i32* %4, align 4
  %56 = sext i32 %55 to i64
  %57 = getelementptr inbounds [100 x i8], [100 x i8]* %54, i64 %56
  %58 = getelementptr inbounds [100 x i8], [100 x i8]* %57, i64 0, i64 0
  %59 = load i32, i32* %5, align 4
  %60 = sext i32 %59 to i64
  %61 = getelementptr inbounds i8, i8* %58, i64 %60
  store i8 0, i8* %61, align 1
  br label %62

62:                                               ; preds = %53
  %63 = load i32, i32* %5, align 4
  %64 = add nsw i32 %63, 1
  store i32 %64, i32* %5, align 4
  br label %41

65:                                               ; preds = %41
  %66 = load [100 x i8]*, [100 x i8]** %7, align 8
  %67 = load i32, i32* %4, align 4
  %68 = sext i32 %67 to i64
  %69 = getelementptr inbounds [100 x i8], [100 x i8]* %66, i64 %68
  %70 = getelementptr inbounds [100 x i8], [100 x i8]* %69, i64 0, i64 0
  %71 = getelementptr inbounds [100 x i8], [100 x i8]* %3, i64 0, i64 0
  %72 = call i8* @strcpy(i8* %70, i8* %71) #6
  br label %73

73:                                               ; preds = %65, %31
  br label %74

74:                                               ; preds = %73
  %75 = load i32, i32* %4, align 4
  %76 = add nsw i32 %75, 1
  store i32 %76, i32* %4, align 4
  br label %27

77:                                               ; preds = %27
  store i32 0, i32* %5, align 4
  br label %78

78:                                               ; preds = %98, %77
  %79 = load [100 x i8]*, [100 x i8]** %7, align 8
  %80 = getelementptr inbounds [100 x i8], [100 x i8]* %79, i64 0
  %81 = getelementptr inbounds [100 x i8], [100 x i8]* %80, i64 0, i64 0
  %82 = load i32, i32* %5, align 4
  %83 = sext i32 %82 to i64
  %84 = getelementptr inbounds i8, i8* %81, i64 %83
  %85 = load i8, i8* %84, align 1
  %86 = sext i8 %85 to i32
  %87 = icmp ne i32 %86, 0
  br i1 %87, label %88, label %101

88:                                               ; preds = %78
  %89 = load [100 x i8]*, [100 x i8]** %7, align 8
  %90 = getelementptr inbounds [100 x i8], [100 x i8]* %89, i64 0
  %91 = getelementptr inbounds [100 x i8], [100 x i8]* %90, i64 0, i64 0
  %92 = load i32, i32* %5, align 4
  %93 = sext i32 %92 to i64
  %94 = getelementptr inbounds i8, i8* %91, i64 %93
  %95 = load i8, i8* %94, align 1
  %96 = sext i8 %95 to i32
  %97 = call i32 (i8*, ...) @printf(i8* getelementptr inbounds ([3 x i8], [3 x i8]* @.str.1, i64 0, i64 0), i32 %96)
  br label %98

98:                                               ; preds = %88
  %99 = load i32, i32* %5, align 4
  %100 = add nsw i32 %99, 1
  store i32 %100, i32* %5, align 4
  br label %78

101:                                              ; preds = %78
  store i32 1, i32* %4, align 4
  br label %102

102:                                              ; preds = %136, %101
  %103 = load i32, i32* %4, align 4
  %104 = load i32, i32* %6, align 4
  %105 = icmp slt i32 %103, %104
  br i1 %105, label %106, label %139

106:                                              ; preds = %102
  %107 = call i32 (i8*, ...) @printf(i8* getelementptr inbounds ([2 x i8], [2 x i8]* @.str.2, i64 0, i64 0))
  store i32 0, i32* %5, align 4
  br label %108

108:                                              ; preds = %132, %106
  %109 = load [100 x i8]*, [100 x i8]** %7, align 8
  %110 = load i32, i32* %4, align 4
  %111 = sext i32 %110 to i64
  %112 = getelementptr inbounds [100 x i8], [100 x i8]* %109, i64 %111
  %113 = getelementptr inbounds [100 x i8], [100 x i8]* %112, i64 0, i64 0
  %114 = load i32, i32* %5, align 4
  %115 = sext i32 %114 to i64
  %116 = getelementptr inbounds i8, i8* %113, i64 %115
  %117 = load i8, i8* %116, align 1
  %118 = sext i8 %117 to i32
  %119 = icmp ne i32 %118, 0
  br i1 %119, label %120, label %135

120:                                              ; preds = %108
  %121 = load [100 x i8]*, [100 x i8]** %7, align 8
  %122 = load i32, i32* %4, align 4
  %123 = sext i32 %122 to i64
  %124 = getelementptr inbounds [100 x i8], [100 x i8]* %121, i64 %123
  %125 = getelementptr inbounds [100 x i8], [100 x i8]* %124, i64 0, i64 0
  %126 = load i32, i32* %5, align 4
  %127 = sext i32 %126 to i64
  %128 = getelementptr inbounds i8, i8* %125, i64 %127
  %129 = load i8, i8* %128, align 1
  %130 = sext i8 %129 to i32
  %131 = call i32 (i8*, ...) @printf(i8* getelementptr inbounds ([3 x i8], [3 x i8]* @.str.1, i64 0, i64 0), i32 %130)
  br label %132

132:                                              ; preds = %120
  %133 = load i32, i32* %5, align 4
  %134 = add nsw i32 %133, 1
  store i32 %134, i32* %5, align 4
  br label %108

135:                                              ; preds = %108
  br label %136

136:                                              ; preds = %135
  %137 = load i32, i32* %4, align 4
  %138 = add nsw i32 %137, 1
  store i32 %138, i32* %4, align 4
  br label %102

139:                                              ; preds = %102
  ret void
}

; Function Attrs: argmemonly nounwind willreturn
declare void @llvm.memset.p0i8.i64(i8* nocapture writeonly, i8, i64, i1 immarg) #1

declare dso_local i32 @__isoc99_scanf(i8*, ...) #2

declare dso_local i32 @getchar() #2

declare dso_local i32 @gets(...) #2

; Function Attrs: nounwind readonly
declare dso_local i32 @strcmp(i8*, i8*) #3

; Function Attrs: nounwind
declare dso_local i8* @strcpy(i8*, i8*) #4

declare dso_local i32 @printf(i8*, ...) #2


!llvm.module.flags = !{!0}
!llvm.ident = !{!1}

!0 = !{i32 1, !"wchar_size", i32 4}
!1 = !{!"clang version 10.0.0-4ubuntu1 "}
