; ModuleID = 'source-C-CXX/18/396.c'
source_filename = "source-C-CXX/18/396.c"
target datalayout = "e-m:e-p270:32:32-p271:32:32-p272:64:64-i64:64-f80:128-n8:16:32:64-S128"
target triple = "x86_64-pc-linux-gnu"

%struct._IO_FILE = type { i32, i8*, i8*, i8*, i8*, i8*, i8*, i8*, i8*, i8*, i8*, i8*, %struct._IO_marker*, %struct._IO_FILE*, i32, i32, i64, i16, i8, [1 x i8], i8*, i64, %struct._IO_codecvt*, %struct._IO_wide_data*, %struct._IO_FILE*, i8*, i64, i32, [20 x i8] }
%struct._IO_marker = type opaque
%struct._IO_codecvt = type opaque
%struct._IO_wide_data = type opaque

@.str = private unnamed_addr constant [3 x i8] c"%s\00", align 1
@stdin = external local_unnamed_addr global %struct._IO_FILE*, align 8

; Function Attrs: nounwind sspstrong uwtable
define dso_local void @main() local_unnamed_addr #0 {
  %1 = alloca [100 x [100 x i8]], align 16
  %2 = alloca [100 x i8], align 16
  %3 = alloca [100 x i8], align 16
  %4 = getelementptr inbounds [100 x [100 x i8]], [100 x [100 x i8]]* %1, i64 0, i64 0, i64 0
  call void @llvm.lifetime.start.p0i8(i64 10000, i8* nonnull %4) #8
  call void @llvm.memset.p0i8.i64(i8* noundef nonnull align 16 dereferenceable(10000) %4, i8 0, i64 10000, i1 false)
  %5 = getelementptr inbounds [100 x i8], [100 x i8]* %2, i64 0, i64 0
  call void @llvm.lifetime.start.p0i8(i64 100, i8* nonnull %5) #8
  %6 = getelementptr inbounds [100 x i8], [100 x i8]* %3, i64 0, i64 0
  call void @llvm.lifetime.start.p0i8(i64 100, i8* nonnull %6) #8
  br label %7

7:                                                ; preds = %7, %0
  %8 = phi i64 [ %11, %7 ], [ 0, %0 ]
  %9 = getelementptr inbounds [100 x [100 x i8]], [100 x [100 x i8]]* %1, i64 0, i64 %8, i64 0
  %10 = call i32 (i8*, ...) @__isoc99_scanf(i8* getelementptr inbounds ([3 x i8], [3 x i8]* @.str, i64 0, i64 0), i8* nonnull %9)
  %11 = add nuw i64 %8, 1
  %12 = load %struct._IO_FILE*, %struct._IO_FILE** @stdin, align 8, !tbaa !5
  %13 = call i32 @getc(%struct._IO_FILE* %12) #8
  %14 = icmp eq i32 %13, 10
  br i1 %14, label %15, label %7, !llvm.loop !9

15:                                               ; preds = %7
  %16 = trunc i64 %8 to i32
  %17 = call i32 (i8*, ...) bitcast (i32 (...)* @gets to i32 (i8*, ...)*)(i8* nonnull %5) #8
  %18 = call i32 (i8*, ...) bitcast (i32 (...)* @gets to i32 (i8*, ...)*)(i8* nonnull %6) #8
  %19 = add i64 %8, 1
  %20 = and i64 %19, 4294967295
  br label %24

21:                                               ; preds = %41
  %22 = load i8, i8* %4, align 16, !tbaa !11
  %23 = icmp eq i8 %22, 0
  br i1 %23, label %44, label %46

24:                                               ; preds = %15, %41
  %25 = phi i64 [ 0, %15 ], [ %42, %41 ]
  %26 = getelementptr inbounds [100 x [100 x i8]], [100 x [100 x i8]]* %1, i64 0, i64 %25, i64 0
  %27 = call i32 @strcmp(i8* noundef nonnull %26, i8* noundef nonnull %5) #9
  %28 = icmp eq i32 %27, 0
  br i1 %28, label %29, label %41

29:                                               ; preds = %24
  %30 = load i8, i8* %26, align 4, !tbaa !11
  %31 = icmp eq i8 %30, 0
  br i1 %31, label %39, label %32

32:                                               ; preds = %29, %32
  %33 = phi i64 [ %35, %32 ], [ 0, %29 ]
  %34 = phi i8* [ %36, %32 ], [ %26, %29 ]
  store i8 0, i8* %34, align 1, !tbaa !11
  %35 = add nuw nsw i64 %33, 1
  %36 = getelementptr inbounds [100 x [100 x i8]], [100 x [100 x i8]]* %1, i64 0, i64 %25, i64 %35
  %37 = load i8, i8* %36, align 1, !tbaa !11
  %38 = icmp eq i8 %37, 0
  br i1 %38, label %39, label %32, !llvm.loop !12

39:                                               ; preds = %32, %29
  %40 = call i8* @strcpy(i8* noundef nonnull %26, i8* noundef nonnull %6) #8
  br label %41

41:                                               ; preds = %24, %39
  %42 = add nuw nsw i64 %25, 1
  %43 = icmp eq i64 %42, %20
  br i1 %43, label %21, label %24, !llvm.loop !13

44:                                               ; preds = %46, %21
  %45 = icmp eq i32 %16, 0
  br i1 %45, label %73, label %55

46:                                               ; preds = %21, %46
  %47 = phi i64 [ %51, %46 ], [ 0, %21 ]
  %48 = phi i8 [ %53, %46 ], [ %22, %21 ]
  %49 = sext i8 %48 to i32
  %50 = call i32 @putchar(i32 %49)
  %51 = add nuw i64 %47, 1
  %52 = getelementptr inbounds [100 x [100 x i8]], [100 x [100 x i8]]* %1, i64 0, i64 0, i64 %51
  %53 = load i8, i8* %52, align 1, !tbaa !11
  %54 = icmp eq i8 %53, 0
  br i1 %54, label %44, label %46, !llvm.loop !14

55:                                               ; preds = %44, %70
  %56 = phi i64 [ %71, %70 ], [ 1, %44 ]
  %57 = call i32 @putchar(i32 32)
  %58 = getelementptr inbounds [100 x [100 x i8]], [100 x [100 x i8]]* %1, i64 0, i64 %56, i64 0
  %59 = load i8, i8* %58, align 4, !tbaa !11
  %60 = icmp eq i8 %59, 0
  br i1 %60, label %70, label %61

61:                                               ; preds = %55, %61
  %62 = phi i64 [ %66, %61 ], [ 0, %55 ]
  %63 = phi i8 [ %68, %61 ], [ %59, %55 ]
  %64 = sext i8 %63 to i32
  %65 = call i32 @putchar(i32 %64)
  %66 = add nuw i64 %62, 1
  %67 = getelementptr inbounds [100 x [100 x i8]], [100 x [100 x i8]]* %1, i64 0, i64 %56, i64 %66
  %68 = load i8, i8* %67, align 1, !tbaa !11
  %69 = icmp eq i8 %68, 0
  br i1 %69, label %70, label %61, !llvm.loop !15

70:                                               ; preds = %61, %55
  %71 = add nuw nsw i64 %56, 1
  %72 = icmp eq i64 %71, %20
  br i1 %72, label %73, label %55, !llvm.loop !16

73:                                               ; preds = %70, %44
  call void @llvm.lifetime.end.p0i8(i64 100, i8* nonnull %6) #8
  call void @llvm.lifetime.end.p0i8(i64 100, i8* nonnull %5) #8
  call void @llvm.lifetime.end.p0i8(i64 10000, i8* nonnull %4) #8
  ret void
}

; Function Attrs: argmemonly mustprogress nofree nosync nounwind willreturn
declare void @llvm.lifetime.start.p0i8(i64 immarg, i8* nocapture) #1

; Function Attrs: argmemonly mustprogress nofree nounwind willreturn writeonly
declare void @llvm.memset.p0i8.i64(i8* nocapture writeonly, i8, i64, i1 immarg) #2

; Function Attrs: nofree nounwind
declare noundef i32 @__isoc99_scanf(i8* nocapture noundef readonly, ...) local_unnamed_addr #3

declare i32 @gets(...) local_unnamed_addr #4

; Function Attrs: argmemonly mustprogress nofree nounwind readonly willreturn
declare i32 @strcmp(i8* nocapture, i8* nocapture) local_unnamed_addr #5

; Function Attrs: argmemonly mustprogress nofree nounwind willreturn
declare i8* @strcpy(i8* noalias returned writeonly, i8* noalias nocapture readonly) local_unnamed_addr #6

; Function Attrs: argmemonly mustprogress nofree nosync nounwind willreturn
declare void @llvm.lifetime.end.p0i8(i64 immarg, i8* nocapture) #1

; Function Attrs: nofree nounwind
declare noundef i32 @getc(%struct._IO_FILE* nocapture noundef) local_unnamed_addr #3

; Function Attrs: nofree nounwind
declare noundef i32 @putchar(i32 noundef) local_unnamed_addr #7


!llvm.module.flags = !{!0, !1, !2, !3}
!llvm.ident = !{!4}

!0 = !{i32 1, !"wchar_size", i32 4}
!1 = !{i32 7, !"PIC Level", i32 2}
!2 = !{i32 7, !"PIE Level", i32 2}
!3 = !{i32 7, !"uwtable", i32 1}
!4 = !{!"clang version 13.0.0"}
!5 = !{!6, !6, i64 0}
!6 = !{!"any pointer", !7, i64 0}
!7 = !{!"omnipotent char", !8, i64 0}
!8 = !{!"Simple C/C++ TBAA"}
!9 = distinct !{!9, !10}
!10 = !{!"llvm.loop.mustprogress"}
!11 = !{!7, !7, i64 0}
!12 = distinct !{!12, !10}
!13 = distinct !{!13, !10}
!14 = distinct !{!14, !10}
!15 = distinct !{!15, !10}
!16 = distinct !{!16, !10}
